target datalayout = "e-m:e-p270:32:32-p271:32:32-p272:64:64-i64:64-i128:128-f80:128-n8:16:32:64-S128"
target triple = "x86_64-pc-linux-gnu"

%struct.VLCElem = type { %union.anon.1 }
%union.anon.1 = type { %struct.anon }
%struct.anon = type { i16, i16 }
%struct.VLC = type { i32, ptr, i32, i32 }

@atrac3_vlc_table = internal global [1792 x %struct.VLCElem] zeroinitializer, align 16
@spectral_coeff_tab = internal global [7 x %struct.VLC] zeroinitializer, align 16
@huff_tab_sizes = internal constant [7 x i8] c"\09\05\07\09\0F\1F?", align 1

; Function Attrs: cold nounwind optsize uwtable
define internal void @atrac3_init_static_data() #0 {
  %1 = alloca ptr, align 8
  %2 = alloca ptr, align 8
  %3 = alloca i32, align 4
  call void @llvm.lifetime.start.p0(i64 8, ptr %1) #10
  store ptr @atrac3_vlc_table, ptr %1, align 8, !tbaa !74
  call void @llvm.lifetime.start.p0(i64 8, ptr %2) #10
  store ptr @atrac3_hufftabs, ptr %2, align 8, !tbaa !29
  call void @llvm.lifetime.start.p0(i64 4, ptr %3) #10
  call void @init_imdct_window() #12
  call void @ff_atrac_generate_tables()
  store i32 0, ptr %3, align 4, !tbaa !35
  br label %4

4:                                                ; preds = %42, %0
  %5 = load i32, ptr %3, align 4, !tbaa !35
  %6 = icmp slt i32 %5, 7
  br i1 %6, label %7, label %45

7:                                                ; preds = %4
  %8 = load ptr, ptr %1, align 8, !tbaa !74
  %9 = load i32, ptr %3, align 4, !tbaa !35
  %10 = sext i32 %9 to i64
  %11 = getelementptr inbounds [7 x %struct.VLC], ptr @spectral_coeff_tab, i64 0, i64 %10
  %12 = getelementptr inbounds nuw %struct.VLC, ptr %11, i32 0, i32 1
  store ptr %8, ptr %12, align 8, !tbaa !76
  %13 = load i32, ptr %3, align 4, !tbaa !35
  %14 = sext i32 %13 to i64
  %15 = getelementptr inbounds [7 x %struct.VLC], ptr @spectral_coeff_tab, i64 0, i64 %14
  %16 = getelementptr inbounds nuw %struct.VLC, ptr %15, i32 0, i32 3
  store i32 256, ptr %16, align 4, !tbaa !78
  %17 = load i32, ptr %3, align 4, !tbaa !35
  %18 = sext i32 %17 to i64
  %19 = getelementptr inbounds [7 x %struct.VLC], ptr @spectral_coeff_tab, i64 0, i64 %18
  %20 = load i32, ptr %3, align 4, !tbaa !35
  %21 = sext i32 %20 to i64
  %22 = getelementptr inbounds [7 x i8], ptr @huff_tab_sizes, i64 0, i64 %21
  %23 = load i8, ptr %22, align 1, !tbaa !73
  %24 = zext i8 %23 to i32
  %25 = load ptr, ptr %2, align 8, !tbaa !29
  %26 = getelementptr inbounds [2 x i8], ptr %25, i64 0
  %27 = getelementptr inbounds [2 x i8], ptr %26, i64 0, i64 1
  %28 = load ptr, ptr %2, align 8, !tbaa !29
  %29 = getelementptr inbounds [2 x i8], ptr %28, i64 0
  %30 = getelementptr inbounds [2 x i8], ptr %29, i64 0, i64 0
  %31 = call i32 @ff_vlc_init_from_lengths(ptr noundef %19, i32 noundef 8, i32 noundef %24, ptr noundef %27, i32 noundef 2, ptr noundef %30, i32 noundef 2, i32 noundef 1, i32 noundef -31, i32 noundef 1, ptr noundef null)
  %32 = load i32, ptr %3, align 4, !tbaa !35
  %33 = sext i32 %32 to i64
  %34 = getelementptr inbounds [7 x i8], ptr @huff_tab_sizes, i64 0, i64 %33
  %35 = load i8, ptr %34, align 1, !tbaa !73
  %36 = zext i8 %35 to i32
  %37 = load ptr, ptr %2, align 8, !tbaa !29
  %38 = sext i32 %36 to i64
  %39 = getelementptr inbounds [2 x i8], ptr %37, i64 %38
  store ptr %39, ptr %2, align 8, !tbaa !29
  %40 = load ptr, ptr %1, align 8, !tbaa !74
  %41 = getelementptr inbounds %struct.VLCElem, ptr %40, i64 256
  store ptr %41, ptr %1, align 8, !tbaa !74
  br label %42

42:                                               ; preds = %7
  %43 = load i32, ptr %3, align 4, !tbaa !35
  %44 = add nsw i32 %43, 1
  store i32 %44, ptr %3, align 4, !tbaa !35
  br label %4, !llvm.loop !79

45:                                               ; preds = %4
  call void @llvm.lifetime.end.p0(i64 4, ptr %3) #10
  call void @llvm.lifetime.end.p0(i64 8, ptr %2) #10
  call void @llvm.lifetime.end.p0(i64 8, ptr %1) #10
  ret void
}