; Function Attrs: cold nounwind optsize uwtable
define internal void @atrac3_init_static_data() #0 {
  tail call fastcc void @init_imdct_window() #10
  tail call void @ff_atrac_generate_tables() #9
  br label %1

1:                                                ; preds = %0, %1
  %indvars.iv = phi i64 [ 0, %0 ], [ %indvars.iv.next, %1 ]
  %.01114 = phi ptr [ @atrac3_hufftabs, %0 ], [ %11, %1 ]
  %.01213 = phi ptr [ @atrac3_vlc_table, %0 ], [ %12, %1 ]
  %2 = getelementptr inbounds nuw [7 x %struct.VLC], ptr @spectral_coeff_tab, i64 0, i64 %indvars.iv
  %3 = getelementptr inbounds nuw i8, ptr %2, i64 8
  store ptr %.01213, ptr %3, align 8, !tbaa !87
  %4 = getelementptr inbounds nuw i8, ptr %2, i64 20
  store i32 256, ptr %4, align 4, !tbaa !90
  %5 = getelementptr inbounds nuw [7 x i8], ptr @huff_tab_sizes, i64 0, i64 %indvars.iv
  %6 = load i8, ptr %5, align 1, !tbaa !38
  %7 = zext i8 %6 to i32
  %8 = getelementptr inbounds nuw i8, ptr %.01114, i64 1
  %9 = tail call i32 @ff_vlc_init_from_lengths(ptr noundef nonnull %2, i32 noundef 8, i32 noundef %7, ptr noundef nonnull %8, i32 noundef 2, ptr noundef nonnull %.01114, i32 noundef 2, i32 noundef 1, i32 noundef -31, i32 noundef 1, ptr noundef null) #9
  %10 = zext i8 %6 to i64
  %11 = getelementptr inbounds nuw [2 x i8], ptr %.01114, i64 %10
  %12 = getelementptr inbounds nuw i8, ptr %.01213, i64 1024
  %indvars.iv.next = add nuw nsw i64 %indvars.iv, 1
  %exitcond.not = icmp eq i64 %indvars.iv.next, 7
  br i1 %exitcond.not, label %13, label %1, !llvm.loop !91

13:                                               ; preds = %1
  ret void
}